target datalayout = "e-m:e-p270:32:32-p271:32:32-p272:64:64-i64:64-i128:128-f80:128-n8:16:32:64-S128"
target triple = "x86_64-pc-linux-gnu"

%struct.PgStat_KindInfo = type { i8, i32, i32, i32, i32, i32, i32, ptr, ptr, ptr, ptr, ptr, ptr, ptr, ptr, ptr, ptr, ptr, ptr }

@.str = private unnamed_addr constant [20 x i8] c"pg_stat/pgstat.stat\00", align 1
@.str.1 = private unnamed_addr constant [63 x i8] c"didn't need to unlink permanent stats file \22%s\22 - didn't exist\00", align 1
@.str.2 = private unnamed_addr constant [9 x i8] c"pgstat.c\00", align 1
@__func__.pgstat_discard_stats = private unnamed_addr constant [21 x i8] c"pgstat_discard_stats\00", align 1
@.str.3 = private unnamed_addr constant [52 x i8] c"could not unlink permanent statistics file \22%s\22: %m\00", align 1
@.str.4 = private unnamed_addr constant [40 x i8] c"unlinked permanent statistics file \22%s\22\00", align 1
@pgstat_kind_custom_infos = internal global ptr null, align 8

; Function Attrs: inlinehint nounwind uwtable
define internal zeroext i1 @pgstat_is_kind_custom(i32 noundef %0) #6 {
  %2 = alloca i32, align 4
  store i32 %0, ptr %2, align 4
  %3 = load i32, ptr %2, align 4
  %4 = icmp uge i32 %3, 128
  br i1 %4, label %5, label %8

5:                                                ; preds = %1
  %6 = load i32, ptr %2, align 4
  %7 = icmp ule i32 %6, 256
  br label %8

8:                                                ; preds = %5, %1
  %9 = phi i1 [ false, %1 ], [ %7, %5 ]
  ret i1 %9
}

; Function Attrs: inlinehint nounwind uwtable
define internal zeroext i1 @pgstat_is_kind_builtin(i32 noundef %0) #6 {
  %2 = alloca i32, align 4
  store i32 %0, ptr %2, align 4
  %3 = load i32, ptr %2, align 4
  %4 = icmp uge i32 %3, 1
  br i1 %4, label %5, label %8

5:                                                ; preds = %1
  %6 = load i32, ptr %2, align 4
  %7 = icmp ule i32 %6, 12
  br label %8

8:                                                ; preds = %5, %1
  %9 = phi i1 [ false, %1 ], [ %7, %5 ]
  ret i1 %9
}

; Function Attrs: nounwind uwtable
define dso_local ptr @pgstat_get_kind_info(i32 noundef %0) #0 {
  %2 = alloca ptr, align 8
  %3 = alloca i32, align 4
  %4 = alloca i32, align 4
  %5 = alloca i32, align 4
  store i32 %0, ptr %3, align 4
  %6 = load i32, ptr %3, align 4
  %7 = call zeroext i1 @pgstat_is_kind_builtin(i32 noundef %6)
  br i1 %7, label %8, label %12

8:                                                ; preds = %1
  %9 = load i32, ptr %3, align 4
  %10 = zext i32 %9 to i64
  %11 = getelementptr inbounds nuw [13 x %struct.PgStat_KindInfo], ptr @pgstat_kind_builtin_infos, i64 0, i64 %10
  store ptr %11, ptr %2, align 8
  br label %36

12:                                               ; preds = %1
  %13 = load i32, ptr %3, align 4
  %14 = call zeroext i1 @pgstat_is_kind_custom(i32 noundef %13)
  br i1 %14, label %15, label %35

15:                                               ; preds = %12
  call void @llvm.lifetime.start.p0(i64 4, ptr %4) #12
  %16 = load i32, ptr %3, align 4
  %17 = sub i32 %16, 128
  store i32 %17, ptr %4, align 4
  %18 = load ptr, ptr @pgstat_kind_custom_infos, align 8
  %19 = icmp eq ptr %18, null
  br i1 %19, label %27, label %20

20:                                               ; preds = %15
  %21 = load ptr, ptr @pgstat_kind_custom_infos, align 8
  %22 = load i32, ptr %4, align 4
  %23 = zext i32 %22 to i64
  %24 = getelementptr inbounds nuw ptr, ptr %21, i64 %23
  %25 = load ptr, ptr %24, align 8
  %26 = icmp eq ptr %25, null
  br i1 %26, label %27, label %28

27:                                               ; preds = %20, %15
  store ptr null, ptr %2, align 8
  store i32 1, ptr %5, align 4
  br label %34

28:                                               ; preds = %20
  %29 = load ptr, ptr @pgstat_kind_custom_infos, align 8
  %30 = load i32, ptr %4, align 4
  %31 = zext i32 %30 to i64
  %32 = getelementptr inbounds nuw ptr, ptr %29, i64 %31
  %33 = load ptr, ptr %32, align 8
  store ptr %33, ptr %2, align 8
  store i32 1, ptr %5, align 4
  br label %34

34:                                               ; preds = %28, %27
  call void @llvm.lifetime.end.p0(i64 4, ptr %4) #12
  br label %36

35:                                               ; preds = %12
  store ptr null, ptr %2, align 8
  br label %36

36:                                               ; preds = %35, %34, %8
  %37 = load ptr, ptr %2, align 8
  ret ptr %37
}

; Function Attrs: nounwind uwtable
define internal void @pgstat_reset_after_failure() #0 {
  %1 = alloca i64, align 8
  %2 = alloca i32, align 4
  %3 = alloca i32, align 4
  %4 = alloca ptr, align 8
  call void @llvm.lifetime.start.p0(i64 8, ptr %1) #12
  %5 = call i64 @GetCurrentTimestamp()
  store i64 %5, ptr %1, align 8
  call void @llvm.lifetime.start.p0(i64 4, ptr %2) #12
  store i32 1, ptr %2, align 4
  br label %6

6:                                                ; preds = %29, %0
  %7 = load i32, ptr %2, align 4
  %8 = icmp ule i32 %7, 256
  br i1 %8, label %10, label %9

9:                                                ; preds = %6
  store i32 2, ptr %3, align 4
  call void @llvm.lifetime.end.p0(i64 4, ptr %2) #12
  br label %32

10:                                               ; preds = %6
  call void @llvm.lifetime.start.p0(i64 8, ptr %4) #12
  %11 = load i32, ptr %2, align 4
  %12 = call ptr @pgstat_get_kind_info(i32 noundef %11)
  store ptr %12, ptr %4, align 8
  %13 = load ptr, ptr %4, align 8
  %14 = icmp ne ptr %13, null
  br i1 %14, label %15, label %20

15:                                               ; preds = %10
  %16 = load ptr, ptr %4, align 8
  %17 = load i8, ptr %16, align 8
  %18 = and i8 %17, 1
  %19 = trunc i8 %18 to i1
  br i1 %19, label %21, label %20

20:                                               ; preds = %15, %10
  store i32 4, ptr %3, align 4
  br label %26

21:                                               ; preds = %15
  %22 = load ptr, ptr %4, align 8
  %23 = getelementptr inbounds nuw %struct.PgStat_KindInfo, ptr %22, i32 0, i32 16
  %24 = load ptr, ptr %23, align 8
  %25 = load i64, ptr %1, align 8
  call void %24(i64 noundef %25)
  store i32 0, ptr %3, align 4
  br label %26

26:                                               ; preds = %21, %20
  call void @llvm.lifetime.end.p0(i64 8, ptr %4) #12
  %27 = load i32, ptr %3, align 4
  switch i32 %27, label %33 [
    i32 0, label %28
    i32 4, label %29
  ]

28:                                               ; preds = %26
  br label %29

29:                                               ; preds = %28, %26
  %30 = load i32, ptr %2, align 4
  %31 = add i32 %30, 1
  store i32 %31, ptr %2, align 4
  br label %6, !llvm.loop !6

32:                                               ; preds = %9
  call void @pgstat_drop_all_entries()
  call void @llvm.lifetime.end.p0(i64 8, ptr %1) #12
  ret void

33:                                               ; preds = %26
  unreachable
}

; Function Attrs: nounwind uwtable
define dso_local void @pgstat_discard_stats() #0 {
  %1 = alloca i32, align 4
  call void @llvm.lifetime.start.p0(i64 4, ptr %1) #12
  %2 = call i32 @unlink(ptr noundef @.str) #12
  store i32 %2, ptr %1, align 4
  %3 = load i32, ptr %1, align 4
  %4 = icmp ne i32 %3, 0
  br i1 %4, label %5, label %33

5:                                                ; preds = %0
  %6 = call ptr @__errno_location() #14
  %7 = load i32, ptr %6, align 4
  %8 = icmp eq i32 %7, 2
  br i1 %8, label %9, label %20

9:                                                ; preds = %5
  br label %10

10:                                               ; preds = %9
  br i1 false, label %11, label %13

11:                                               ; preds = %10
  %12 = call zeroext i1 @errstart_cold(i32 noundef 13, ptr noundef null) #13
  br i1 %12, label %15, label %17

13:                                               ; preds = %10
  %14 = call zeroext i1 @errstart(i32 noundef 13, ptr noundef null)
  br i1 %14, label %15, label %17

15:                                               ; preds = %13, %11
  %16 = call i32 (ptr, ...) @errmsg_internal(ptr noundef @.str.1, ptr noundef @.str)
  call void @errfinish(ptr noundef @.str.2, i32 noundef 530, ptr noundef @__func__.pgstat_discard_stats)
  br label %17

17:                                               ; preds = %15, %13, %11
  br label %18

18:                                               ; preds = %17
  br label %19

19:                                               ; preds = %18
  br label %32

20:                                               ; preds = %5
  br label %21

21:                                               ; preds = %20
  br i1 false, label %22, label %24

22:                                               ; preds = %21
  %23 = call zeroext i1 @errstart_cold(i32 noundef 15, ptr noundef null) #13
  br i1 %23, label %26, label %29

24:                                               ; preds = %21
  %25 = call zeroext i1 @errstart(i32 noundef 15, ptr noundef null)
  br i1 %25, label %26, label %29

26:                                               ; preds = %24, %22
  %27 = call i32 @errcode_for_file_access()
  %28 = call i32 (ptr, ...) @errmsg(ptr noundef @.str.3, ptr noundef @.str)
  call void @errfinish(ptr noundef @.str.2, i32 noundef 535, ptr noundef @__func__.pgstat_discard_stats)
  br label %29

29:                                               ; preds = %26, %24, %22
  br label %30

30:                                               ; preds = %29
  br label %31

31:                                               ; preds = %30
  br label %32

32:                                               ; preds = %31, %19
  br label %45

33:                                               ; preds = %0
  br label %34

34:                                               ; preds = %33
  br i1 false, label %35, label %37

35:                                               ; preds = %34
  %36 = call zeroext i1 @errstart_cold(i32 noundef 13, ptr noundef null) #13
  br i1 %36, label %39, label %42

37:                                               ; preds = %34
  %38 = call zeroext i1 @errstart(i32 noundef 13, ptr noundef null)
  br i1 %38, label %39, label %42

39:                                               ; preds = %37, %35
  %40 = call i32 @errcode_for_file_access()
  %41 = call i32 (ptr, ...) @errmsg_internal(ptr noundef @.str.4, ptr noundef @.str)
  call void @errfinish(ptr noundef @.str.2, i32 noundef 542, ptr noundef @__func__.pgstat_discard_stats)
  br label %42

42:                                               ; preds = %39, %37, %35
  br label %43

43:                                               ; preds = %42
  br label %44

44:                                               ; preds = %43
  br label %45

45:                                               ; preds = %44, %32
  call void @pgstat_reset_after_failure()
  call void @llvm.lifetime.end.p0(i64 4, ptr %1) #12
  ret void
}