; Function Attrs: nounwind uwtable
define dso_local void @pgstat_discard_stats() local_unnamed_addr #0 {
  %1 = tail call i32 @unlink(ptr noundef nonnull @.str) #17
  %.not = icmp eq i32 %1, 0
  br i1 %.not, label %15, label %2

2:                                                ; preds = %0
  %3 = tail call ptr @__errno_location() #18
  %4 = load i32, ptr %3, align 4
  %5 = icmp eq i32 %4, 2
  br i1 %5, label %6, label %10

6:                                                ; preds = %2
  %7 = tail call zeroext i1 @errstart(i32 noundef 13, ptr noundef null) #17
  br i1 %7, label %8, label %20

8:                                                ; preds = %6
  %9 = tail call i32 (ptr, ...) @errmsg_internal(ptr noundef nonnull @.str.1, ptr noundef nonnull @.str) #17
  br label %.sink.split

10:                                               ; preds = %2
  %11 = tail call zeroext i1 @errstart(i32 noundef 15, ptr noundef null) #17
  br i1 %11, label %12, label %20

12:                                               ; preds = %10
  %13 = tail call i32 @errcode_for_file_access() #17
  %14 = tail call i32 (ptr, ...) @errmsg(ptr noundef nonnull @.str.3, ptr noundef nonnull @.str) #17
  br label %.sink.split

15:                                               ; preds = %0
  %16 = tail call zeroext i1 @errstart(i32 noundef 13, ptr noundef null) #17
  br i1 %16, label %17, label %20

17:                                               ; preds = %15
  %18 = tail call i32 @errcode_for_file_access() #17
  %19 = tail call i32 (ptr, ...) @errmsg_internal(ptr noundef nonnull @.str.4, ptr noundef nonnull @.str) #17
  br label %.sink.split

.sink.split:                                      ; preds = %12, %8, %17
  %.sink = phi i32 [ 542, %17 ], [ 530, %8 ], [ 535, %12 ]
  tail call void @errfinish(ptr noundef nonnull @.str.2, i32 noundef %.sink, ptr noundef nonnull @__func__.pgstat_discard_stats) #17
  br label %20

20:                                               ; preds = %.sink.split, %15, %6, %10
  %21 = tail call i64 @GetCurrentTimestamp() #17
  br label %22

22:                                               ; preds = %pgstat_get_kind_info.exit.thread.i, %20
  %indvars.iv.i = phi i64 [ 1, %20 ], [ %indvars.iv.next.i, %pgstat_get_kind_info.exit.thread.i ]
  %23 = icmp samesign ult i64 %indvars.iv.i, 13
  br i1 %23, label %pgstat_get_kind_info.exit.thread9.i, label %25

pgstat_get_kind_info.exit.thread9.i:              ; preds = %22
  %24 = getelementptr inbounds nuw [13 x %struct.PgStat_KindInfo], ptr @pgstat_kind_builtin_infos, i64 0, i64 %indvars.iv.i
  br label %33

25:                                               ; preds = %22
  %26 = add nsw i64 %indvars.iv.i, -128
  %27 = icmp ult i64 %26, 129
  br i1 %27, label %28, label %pgstat_get_kind_info.exit.thread.i

28:                                               ; preds = %25
  %29 = load ptr, ptr @pgstat_kind_custom_infos, align 8
  %30 = icmp eq ptr %29, null
  br i1 %30, label %pgstat_get_kind_info.exit.thread.i, label %pgstat_get_kind_info.exit.i

pgstat_get_kind_info.exit.i:                      ; preds = %28
  %31 = getelementptr inbounds nuw ptr, ptr %29, i64 %26
  %32 = load ptr, ptr %31, align 8
  %.not.i = icmp eq ptr %32, null
  br i1 %.not.i, label %pgstat_get_kind_info.exit.thread.i, label %33

33:                                               ; preds = %pgstat_get_kind_info.exit.i, %pgstat_get_kind_info.exit.thread9.i
  %.0.i12.i = phi ptr [ %24, %pgstat_get_kind_info.exit.thread9.i ], [ %32, %pgstat_get_kind_info.exit.i ]
  %34 = load i8, ptr %.0.i12.i, align 8
  %35 = trunc i8 %34 to i1
  br i1 %35, label %36, label %pgstat_get_kind_info.exit.thread.i

36:                                               ; preds = %33
  %37 = getelementptr inbounds nuw i8, ptr %.0.i12.i, i64 104
  %38 = load ptr, ptr %37, align 8
  tail call void %38(i64 noundef %21) #17
  br label %pgstat_get_kind_info.exit.thread.i

pgstat_get_kind_info.exit.thread.i:               ; preds = %36, %33, %pgstat_get_kind_info.exit.i, %28, %25
  %indvars.iv.next.i = add nuw nsw i64 %indvars.iv.i, 1
  %exitcond.not.i = icmp eq i64 %indvars.iv.next.i, 257
  br i1 %exitcond.not.i, label %pgstat_reset_after_failure.exit, label %22, !llvm.loop !4

pgstat_reset_after_failure.exit:                  ; preds = %pgstat_get_kind_info.exit.thread.i
  tail call void @pgstat_drop_all_entries() #17
  ret void
}